(dp1
S'Move Pivot To Vertices'
p2
I7
sS'NURBS Sphere'
p3
I14
sS'Mirror +X'
p4
I7
sS'Mirror X'
p5
I1
sS'Mirror Z'
p6
I8
sS'Mirror -Y'
p7
I1
sS'Mirror -Z'
p8
I1
sS'ThibH - Snap to Center of World'
p9
I10
sS'Lattice'
p10
I6
sS'NURBS Cube'
p11
I19
sS'Combine'
p12
I12
sS'Add Lambert Shader to Selected Object'
p13
I2
sS'Add Layered Shader to Selected Object'
p14
I2
sS'Toggle Grid'
p15
I3
sS'Add Anisotropic Shader to Selected Object'
p16
I2
sS'Light Editor'
p17
I2
sS'Hide Lattices'
p18
I2
sS'Area Light'
p19
I1
sS'Reset Transformations'
p20
I2
sS'Mirror +Z'
p21
I1
sS'Cube'
p22
I139
sS'Aim Constraint'
p23
I2
sS'Separate'
p24
I6
sS'CV Curve Tool'
p25
I3
sS'NURBS Torus'
p26
I1
sS'Delete History'
p27
I10
sS'Create Polygon Tool'
p28
I1
sS'Attribute SpreadSheet'
p29
I1
sS'Center Pivot'
p30
I14
sS'Freeze Transformations'
p31
I16
sS'Add Phong Shader to Selected Object'
p32
I2
sS'ThibH - Renamer'
p33
I12
sS'Render Settings'
p34
I5
sS'Bevel'
p35
I8
sS'ThibH - Create Basic Scene'
p36
I17
sS'Add Divisions'
p37
I1
sS'Add Lambert Shader to Selected Objects'
p38
I6
sS'Plugin Manager'
p39
I2
sS'Add Surface Shader to Selected Object'
p40
I2
sS'Hotkey Editor'
p41
I2
sS'Point Light'
p42
I1
sS'Snap Together Tool'
p43
I1
sS'Render View'
p44
I2
sS'Sphere'
p45
I45
sS'ThibH - Create Locator on Selected Vertices'
p46
I2
sS'Show Lattices'
p47
I2
sS'Graph Editor'
p48
I6
sS'Set Framerate to 24'
p49
I1
sS'ThibH - Fill Selection and Close Holes'
p50
I5
sS'Particles Goal'
p51
I1
sS'Soften Edge'
p52
I4
sS'Insert Edge Loop Tools'
p53
I1
sS'Paint Hair Follicles'
p54
I1
sS'Create Hair'
p55
I2
sS'Outliner'
p56
I16
sS'Align Objects'
p57
I1
sS'Add Blinn Shader to Selected Objects'
p58
I6
sS'Hypergraph Hierarchy'
p59
I1
sS'Smooth Polygons'
p60
I10
sS'Locator'
p61
I9
sS'Add Blinn Shader to Selected Object'
p62
I1
sS'Add Lambert Material to Selected Object'
p63
I1
sS'Add Surface Shader to Selected Objects'
p64
I1
sS'Add Phong Shader to Selected Objects'
p65
I1
s.